(dp0
S'rmse_rot'
p1
(lp2
F17.324159800339018
aF18.4687167069534
aF22.069055815635664
aF18.083372797470233
aF21.961258240997466
asS'rmse_trans'
p3
(lp4
F1.8843962617644145
aF1.8202806486929015
aF1.9151738419864437
aF1.9340229761780516
aF2.0743938487853963
asS'rmse_scale'
p5
(lp6
Finf
aFinf
aFinf
aFinf
aFinf
asS'rmse_rot_stats'
p7
(dp8
S'std'
p9
F2.0213579393708865
sS'min'
p10
F17.324159800339018
sS'max'
p11
F22.069055815635664
sS'rmse'
p12
F19.685367507075348
sS'median'
p13
F18.4687167069534
sS'num_samples'
p14
I5
sS'mean'
p15
F19.581312672279157
ssS'rmse_scale_stats'
p16
(dp17
g9
Fnan
sg10
Finf
sg11
Finf
sg12
Finf
sg13
Finf
sg14
I5
sg15
Finf
ssS'rmse_trans_stats'
p18
(dp19
g9
F0.08379637249880446
sg10
F1.8202806486929015
sg11
F2.0743938487853963
sg12
F1.9274758866792583
sg13
F1.9151738419864437
sg14
I5
sg15
F1.9256535154814416
ss.