(dp0
S'rmse_rot'
p1
(lp2
F17.61901817141271
aF16.444577523629082
aF16.525162962125055
aF21.378311681577358
aF19.189563547328575
asS'rmse_trans'
p3
(lp4
F3.334704504342279
aF3.2556717504265245
aF3.2217667525730738
aF3.369608193358261
aF3.254990414710267
asS'rmse_scale'
p5
(lp6
Finf
aFinf
aFinf
aFinf
aFinf
asS'rmse_rot_stats'
p7
(dp8
S'std'
p9
F1.860114049392344
sS'min'
p10
F16.444577523629082
sS'max'
p11
F21.378311681577358
sS'rmse'
p12
F18.32597338026898
sS'median'
p13
F17.61901817141271
sS'num_samples'
p14
I5
sS'mean'
p15
F18.231326777214555
ssS'rmse_scale_stats'
p16
(dp17
g9
Fnan
sg10
Finf
sg11
Finf
sg12
Finf
sg13
Finf
sg14
I5
sg15
Finf
ssS'rmse_trans_stats'
p18
(dp19
g9
F0.05542684555561867
sg10
F3.2217667525730738
sg11
F3.369608193358261
sg12
F3.2878155563350595
sg13
F3.2556717504265245
sg14
I5
sg15
F3.287348323082081
ss.