(dp0
S'rmse_rot'
p1
(lp2
F81.85938525383939
aF81.29396301393973
aF81.56036233924792
aF83.12977275268402
aF83.9108205245285
asS'rmse_trans'
p3
(lp4
F1.8081959163440264
aF1.8573037036315487
aF2.065621595056489
aF2.17741887966578
aF2.1254281181403174
asS'rmse_scale'
p5
(lp6
Finf
aFinf
aFinf
aFinf
aFinf
asS'rmse_rot_stats'
p7
(dp8
S'std'
p9
F1.0023619237869577
sS'min'
p10
F81.29396301393973
sS'max'
p11
F83.9108205245285
sS'rmse'
p12
F82.3569608479699
sS'median'
p13
F81.85938525383939
sS'num_samples'
p14
I5
sS'mean'
p15
F82.35086077684791
ssS'rmse_scale_stats'
p16
(dp17
g9
Fnan
sg10
Finf
sg11
Finf
sg12
Finf
sg13
Finf
sg14
I5
sg15
Finf
ssS'rmse_trans_stats'
p18
(dp19
g9
F0.14726583923472317
sg10
F1.8081959163440264
sg11
F2.17741887966578
sg12
F2.0121898397654667
sg13
F2.065621595056489
sg14
I5
sg15
F2.006793642567632
ss.