(dp0
S'rmse_rot'
p1
(lp2
F70.46591756023035
aF62.45926738262854
aF19.02952691221633
aF76.2530068575673
aF87.02441396854022
asS'rmse_trans'
p3
(lp4
F9.350756131451735
aF8.695184407707629
aF2.623841161441534
aF9.369129821307848
aF9.648273085383135
asS'rmse_scale'
p5
(lp6
Finf
aFinf
aFinf
aFinf
aFinf
asS'rmse_rot_stats'
p7
(dp8
S'std'
p9
F23.418961123522685
sS'min'
p10
F19.02952691221633
sS'max'
p11
F87.02441396854022
sS'rmse'
p12
F67.25548036475644
sS'median'
p13
F70.46591756023035
sS'num_samples'
p14
I5
sS'mean'
p15
F63.04642653623655
ssS'rmse_scale_stats'
p16
(dp17
g9
Fnan
sg10
Finf
sg11
Finf
sg12
Finf
sg13
Finf
sg14
I5
sg15
Finf
ssS'rmse_trans_stats'
p18
(dp19
g9
F2.6751694257521126
sg10
F2.623841161441534
sg11
F9.648273085383135
sg12
F8.376122989701711
sg13
F9.350756131451735
sg14
I5
sg15
F7.937436921458376
ss.